; Function Attrs: null_pointer_is_valid sspstrong uwtable
define internal fastcc i32 @dissect_ccp_other_opt(ptr noundef %0, ptr noundef %1, i32 noundef %2, i32 noundef %3) unnamed_addr #1 {
  %5 = tail call i32 @tvb_reported_length(ptr noundef %0)
  %6 = tail call ptr @proto_tree_add_item(ptr noundef %1, i32 noundef %2, ptr noundef %0, i32 noundef 0, i32 noundef %5, i32 noundef 0)
  %7 = tail call ptr @proto_item_add_subtree(ptr noundef %6, i32 noundef %3)
  %8 = tail call ptr @proto_registrar_get_name(i32 noundef %2)
  %9 = tail call zeroext i8 @tvb_get_uint8(ptr noundef %0, i32 noundef 0)
  %10 = load i32, ptr @hf_ccp_opt_type, align 4
  %11 = zext i8 %9 to i32
  %12 = tail call ptr (ptr, i32, ptr, i32, i32, i32, ptr, ...) @proto_tree_add_uint_format_value(ptr noundef %7, i32 noundef %10, ptr noundef %0, i32 noundef 0, i32 noundef 1, i32 noundef %11, ptr noundef nonnull @.str.1295, ptr noundef %8, i32 noundef %11)
  %13 = load i32, ptr @hf_ccp_opt_length, align 4
  %14 = tail call ptr @proto_tree_add_item(ptr noundef %7, i32 noundef %13, ptr noundef %0, i32 noundef 1, i32 noundef 1, i32 noundef 0)
  %15 = icmp sgt i32 %5, 2
  br i1 %15, label %16, label %20

16:                                               ; preds = %4
  %17 = load i32, ptr @hf_ccp_opt_data, align 4
  %18 = add nsw i32 %5, -2
  %19 = tail call ptr @proto_tree_add_item(ptr noundef %7, i32 noundef %17, ptr noundef %0, i32 noundef 2, i32 noundef %18, i32 noundef 0)
  br label %20

20:                                               ; preds = %16, %4
  %21 = tail call i32 @tvb_captured_length(ptr noundef %0)
  ret i32 %21
}